target datalayout = "e-m:e-p270:32:32-p271:32:32-p272:64:64-i64:64-i128:128-f80:128-n8:16:32:64-S128"
target triple = "x86_64-pc-linux-gnu"

; Function Attrs: mustprogress nounwind uwtable
define void @_ZN5faiss16simd_histogram_8EPKtitiPi(ptr noundef %0, i32 noundef %1, i16 noundef zeroext %2, i32 noundef %3, ptr noundef %4) #1 {
  %6 = alloca ptr, align 8
  %7 = alloca i32, align 4
  %8 = alloca i16, align 2
  %9 = alloca i32, align 4
  %10 = alloca ptr, align 8
  %11 = alloca i64, align 8
  %12 = alloca i64, align 8
  %13 = alloca i16, align 2
  store ptr %0, ptr %6, align 8
  store i32 %1, ptr %7, align 4
  store i16 %2, ptr %8, align 2
  store i32 %3, ptr %9, align 4
  store ptr %4, ptr %10, align 8
  %14 = load ptr, ptr %10, align 8
  call void @llvm.memset.p0.i64(ptr align 4 %14, i8 0, i64 32, i1 false)
  %15 = load i32, ptr %9, align 4
  %16 = icmp slt i32 %15, 0
  br i1 %16, label %17, label %37

17:                                               ; preds = %5
  store i64 0, ptr %11, align 8
  br label %18

18:                                               ; preds = %33, %17
  %19 = load i64, ptr %11, align 8
  %20 = load i32, ptr %7, align 4
  %21 = sext i32 %20 to i64
  %22 = icmp ult i64 %19, %21
  br i1 %22, label %23, label %36

23:                                               ; preds = %18
  %24 = load ptr, ptr %10, align 8
  %25 = load ptr, ptr %6, align 8
  %26 = load i64, ptr %11, align 8
  %27 = getelementptr inbounds i16, ptr %25, i64 %26
  %28 = load i16, ptr %27, align 2
  %29 = zext i16 %28 to i64
  %30 = getelementptr inbounds i32, ptr %24, i64 %29
  %31 = load i32, ptr %30, align 4
  %32 = add nsw i32 %31, 1
  store i32 %32, ptr %30, align 4
  br label %33

33:                                               ; preds = %23
  %34 = load i64, ptr %11, align 8
  %35 = add i64 %34, 1
  store i64 %35, ptr %11, align 8
  br label %18, !llvm.loop !38

36:                                               ; preds = %18
  br label %83

37:                                               ; preds = %5
  store i64 0, ptr %12, align 8
  br label %38

38:                                               ; preds = %79, %37
  %39 = load i64, ptr %12, align 8
  %40 = load i32, ptr %7, align 4
  %41 = sext i32 %40 to i64
  %42 = icmp ult i64 %39, %41
  br i1 %42, label %43, label %82

43:                                               ; preds = %38
  %44 = load ptr, ptr %6, align 8
  %45 = load i64, ptr %12, align 8
  %46 = getelementptr inbounds i16, ptr %44, i64 %45
  %47 = load i16, ptr %46, align 2
  %48 = zext i16 %47 to i32
  %49 = load i16, ptr %8, align 2
  %50 = zext i16 %49 to i32
  %51 = icmp slt i32 %48, %50
  br i1 %51, label %52, label %53

52:                                               ; preds = %43
  br label %79

53:                                               ; preds = %43
  %54 = load ptr, ptr %6, align 8
  %55 = load i64, ptr %12, align 8
  %56 = getelementptr inbounds i16, ptr %54, i64 %55
  %57 = load i16, ptr %56, align 2
  %58 = zext i16 %57 to i32
  %59 = load i16, ptr %8, align 2
  %60 = zext i16 %59 to i32
  %61 = sub nsw i32 %58, %60
  %62 = trunc i32 %61 to i16
  store i16 %62, ptr %13, align 2
  %63 = load i32, ptr %9, align 4
  %64 = load i16, ptr %13, align 2
  %65 = zext i16 %64 to i32
  %66 = ashr i32 %65, %63
  %67 = trunc i32 %66 to i16
  store i16 %67, ptr %13, align 2
  %68 = load i16, ptr %13, align 2
  %69 = zext i16 %68 to i32
  %70 = icmp slt i32 %69, 8
  br i1 %70, label %71, label %78

71:                                               ; preds = %53
  %72 = load ptr, ptr %10, align 8
  %73 = load i16, ptr %13, align 2
  %74 = zext i16 %73 to i64
  %75 = getelementptr inbounds i32, ptr %72, i64 %74
  %76 = load i32, ptr %75, align 4
  %77 = add nsw i32 %76, 1
  store i32 %77, ptr %75, align 4
  br label %78

78:                                               ; preds = %71, %53
  br label %79

79:                                               ; preds = %78, %52
  %80 = load i64, ptr %12, align 8
  %81 = add i64 %80, 1
  store i64 %81, ptr %12, align 8
  br label %38, !llvm.loop !39

82:                                               ; preds = %38
  br label %83

83:                                               ; preds = %82, %36
  ret void
}