; Function Attrs: mustprogress nofree norecurse nosync nounwind memory(argmem: readwrite) uwtable
define void @_ZN5faiss16simd_histogram_8EPKtitiPi(ptr nocapture noundef readonly %0, i32 noundef %1, i16 noundef zeroext %2, i32 noundef %3, ptr nocapture noundef %4) local_unnamed_addr #5 {
  tail call void @llvm.memset.p0.i64(ptr noundef nonnull align 4 dereferenceable(32) %4, i8 0, i64 32, i1 false)
  %6 = icmp slt i32 %3, 0
  %7 = sext i32 %1 to i64
  %.not30 = icmp eq i32 %1, 0
  br i1 %6, label %.preheader, label %.preheader25

.preheader25:                                     ; preds = %5
  br i1 %.not30, label %.loopexit, label %.lr.ph

.preheader:                                       ; preds = %5
  br i1 %.not30, label %.loopexit, label %.lr.ph29

.lr.ph29:                                         ; preds = %.preheader, %.lr.ph29
  %.02128 = phi i64 [ %14, %.lr.ph29 ], [ 0, %.preheader ]
  %8 = getelementptr inbounds i16, ptr %0, i64 %.02128
  %9 = load i16, ptr %8, align 2
  %10 = zext i16 %9 to i64
  %11 = getelementptr inbounds i32, ptr %4, i64 %10
  %12 = load i32, ptr %11, align 4
  %13 = add nsw i32 %12, 1
  store i32 %13, ptr %11, align 4
  %14 = add nuw i64 %.02128, 1
  %exitcond32.not = icmp eq i64 %14, %7
  br i1 %exitcond32.not, label %.loopexit, label %.lr.ph29, !llvm.loop !37

.lr.ph:                                           ; preds = %.preheader25, %28
  %.027 = phi i64 [ %29, %28 ], [ 0, %.preheader25 ]
  %15 = getelementptr inbounds i16, ptr %0, i64 %.027
  %16 = load i16, ptr %15, align 2
  %17 = icmp ult i16 %16, %2
  br i1 %17, label %28, label %18

18:                                               ; preds = %.lr.ph
  %19 = sub i16 %16, %2
  %20 = zext i16 %19 to i32
  %21 = lshr i32 %20, %3
  %22 = icmp ult i32 %21, 8
  br i1 %22, label %23, label %28

23:                                               ; preds = %18
  %24 = zext nneg i32 %21 to i64
  %25 = getelementptr inbounds i32, ptr %4, i64 %24
  %26 = load i32, ptr %25, align 4
  %27 = add nsw i32 %26, 1
  store i32 %27, ptr %25, align 4
  br label %28

28:                                               ; preds = %18, %23, %.lr.ph
  %29 = add nuw i64 %.027, 1
  %exitcond.not = icmp eq i64 %29, %7
  br i1 %exitcond.not, label %.loopexit, label %.lr.ph, !llvm.loop !38

.loopexit:                                        ; preds = %28, %.lr.ph29, %.preheader25, %.preheader
  ret void
}